target datalayout = "e-m:e-p270:32:32-p271:32:32-p272:64:64-i64:64-i128:128-f80:128-n8:16:32:64-S128"
target triple = "x86_64-pc-linux-gnu"

%struct.SVG_RendererRec_ = type { %struct.FT_RendererRec_, i8, i8, %struct.SVG_RendererHooks_, ptr }
%struct.FT_RendererRec_ = type { %struct.FT_ModuleRec_, ptr, i32, %struct.FT_Glyph_Class_, ptr, ptr, ptr }
%struct.FT_ModuleRec_ = type { ptr, ptr, ptr }
%struct.FT_Glyph_Class_ = type { i64, i32, ptr, ptr, ptr, ptr, ptr, ptr }
%struct.SVG_RendererHooks_ = type { ptr, ptr, ptr, ptr }

@.str.2 = private unnamed_addr constant [10 x i8] c"svg-hooks\00", align 1

; Function Attrs: nounwind uwtable
define internal i32 @ft_svg_property_set(ptr noundef %0, ptr noundef %1, ptr noundef %2, i8 noundef zeroext %3) #0 {
  %5 = alloca i32, align 4
  %6 = alloca ptr, align 8
  %7 = alloca ptr, align 8
  %8 = alloca ptr, align 8
  %9 = alloca i8, align 1
  %10 = alloca i32, align 4
  %11 = alloca ptr, align 8
  %12 = alloca ptr, align 8
  %13 = alloca i32, align 4
  store ptr %0, ptr %6, align 8, !tbaa !3
  store ptr %1, ptr %7, align 8, !tbaa !26
  store ptr %2, ptr %8, align 8, !tbaa !28
  store i8 %3, ptr %9, align 1, !tbaa !81
  call void @llvm.lifetime.start.p0(i64 4, ptr %10) #6
  store i32 0, ptr %10, align 4, !tbaa !10
  call void @llvm.lifetime.start.p0(i64 8, ptr %11) #6
  %14 = load ptr, ptr %6, align 8, !tbaa !3
  store ptr %14, ptr %11, align 8, !tbaa !8
  %15 = load ptr, ptr %7, align 8, !tbaa !26
  %16 = call i32 @strcmp(ptr noundef %15, ptr noundef @.str.2) #7
  %17 = icmp ne i32 %16, 0
  br i1 %17, label %60, label %18

18:                                               ; preds = %4
  call void @llvm.lifetime.start.p0(i64 8, ptr %12) #6
  %19 = load i8, ptr %9, align 1, !tbaa !81
  %20 = zext i8 %19 to i32
  %21 = icmp eq i32 %20, 1
  br i1 %21, label %22, label %23

22:                                               ; preds = %18
  store i32 6, ptr %10, align 4, !tbaa !10
  store i32 2, ptr %13, align 4
  br label %57

23:                                               ; preds = %18
  %24 = load ptr, ptr %8, align 8, !tbaa !28
  store ptr %24, ptr %12, align 8, !tbaa !83
  %25 = load ptr, ptr %12, align 8, !tbaa !83
  %26 = getelementptr inbounds nuw %struct.SVG_RendererHooks_, ptr %25, i32 0, i32 0
  %27 = load ptr, ptr %26, align 8, !tbaa !43
  %28 = icmp ne ptr %27, null
  br i1 %28, label %29, label %44

29:                                               ; preds = %23
  %30 = load ptr, ptr %12, align 8, !tbaa !83
  %31 = getelementptr inbounds nuw %struct.SVG_RendererHooks_, ptr %30, i32 0, i32 1
  %32 = load ptr, ptr %31, align 8, !tbaa !85
  %33 = icmp ne ptr %32, null
  br i1 %33, label %34, label %44

34:                                               ; preds = %29
  %35 = load ptr, ptr %12, align 8, !tbaa !83
  %36 = getelementptr inbounds nuw %struct.SVG_RendererHooks_, ptr %35, i32 0, i32 2
  %37 = load ptr, ptr %36, align 8, !tbaa !59
  %38 = icmp ne ptr %37, null
  br i1 %38, label %39, label %44

39:                                               ; preds = %34
  %40 = load ptr, ptr %12, align 8, !tbaa !83
  %41 = getelementptr inbounds nuw %struct.SVG_RendererHooks_, ptr %40, i32 0, i32 3
  %42 = load ptr, ptr %41, align 8, !tbaa !82
  %43 = icmp ne ptr %42, null
  br i1 %43, label %51, label %44

44:                                               ; preds = %39, %34, %29, %23
  br label %45

45:                                               ; preds = %44
  br label %46

46:                                               ; preds = %45
  br label %47

47:                                               ; preds = %46
  br label %48

48:                                               ; preds = %47
  br label %49

49:                                               ; preds = %48
  br label %50

50:                                               ; preds = %49
  store i32 6, ptr %10, align 4, !tbaa !10
  store i32 2, ptr %13, align 4
  br label %57

51:                                               ; preds = %39
  %52 = load ptr, ptr %11, align 8, !tbaa !8
  %53 = getelementptr inbounds nuw %struct.SVG_RendererRec_, ptr %52, i32 0, i32 3
  %54 = load ptr, ptr %12, align 8, !tbaa !83
  call void @llvm.memcpy.p0.p0.i64(ptr align 8 %53, ptr align 8 %54, i64 32, i1 false), !tbaa.struct !42
  %55 = load ptr, ptr %11, align 8, !tbaa !8
  %56 = getelementptr inbounds nuw %struct.SVG_RendererRec_, ptr %55, i32 0, i32 2
  store i8 1, ptr %56, align 1, !tbaa !24
  store i32 0, ptr %13, align 4
  br label %57

57:                                               ; preds = %50, %22, %51
  call void @llvm.lifetime.end.p0(i64 8, ptr %12) #6
  %58 = load i32, ptr %13, align 4
  switch i32 %58, label %64 [
    i32 0, label %59
    i32 2, label %62
  ]

59:                                               ; preds = %57
  br label %61

60:                                               ; preds = %4
  store i32 12, ptr %10, align 4, !tbaa !10
  br label %61

61:                                               ; preds = %60, %59
  br label %62

62:                                               ; preds = %61, %57
  %63 = load i32, ptr %10, align 4, !tbaa !10
  store i32 %63, ptr %5, align 4
  store i32 1, ptr %13, align 4
  br label %64

64:                                               ; preds = %62, %57
  call void @llvm.lifetime.end.p0(i64 8, ptr %11) #6
  call void @llvm.lifetime.end.p0(i64 4, ptr %10) #6
  %65 = load i32, ptr %5, align 4
  ret i32 %65
}