; Function Attrs: mustprogress nofree nounwind willreturn memory(argmem: readwrite) uwtable
define internal range(i32 0, 13) i32 @ft_svg_property_set(ptr noundef writeonly captures(none) %0, ptr noundef readonly captures(none) %1, ptr noundef readonly captures(none) %2, i8 noundef zeroext %3) #5 {
  %5 = tail call i32 @strcmp(ptr noundef nonnull dereferenceable(1) %1, ptr noundef nonnull dereferenceable(10) @.str.2) #9
  %.not = icmp eq i32 %5, 0
  br i1 %.not, label %6, label %22

6:                                                ; preds = %4
  %7 = icmp eq i8 %3, 1
  br i1 %7, label %22, label %8

8:                                                ; preds = %6
  %9 = load ptr, ptr %2, align 8, !tbaa !65
  %.not15 = icmp eq ptr %9, null
  br i1 %.not15, label %22, label %10

10:                                               ; preds = %8
  %11 = getelementptr inbounds nuw i8, ptr %2, i64 8
  %12 = load ptr, ptr %11, align 8, !tbaa !66
  %.not16 = icmp eq ptr %12, null
  br i1 %.not16, label %22, label %13

13:                                               ; preds = %10
  %14 = getelementptr inbounds nuw i8, ptr %2, i64 16
  %15 = load ptr, ptr %14, align 8, !tbaa !67
  %.not17 = icmp eq ptr %15, null
  br i1 %.not17, label %22, label %16

16:                                               ; preds = %13
  %17 = getelementptr inbounds nuw i8, ptr %2, i64 24
  %18 = load ptr, ptr %17, align 8, !tbaa !68
  %.not18 = icmp eq ptr %18, null
  br i1 %.not18, label %22, label %19

19:                                               ; preds = %16
  %20 = getelementptr inbounds nuw i8, ptr %0, i64 136
  tail call void @llvm.memcpy.p0.p0.i64(ptr noundef nonnull align 8 dereferenceable(32) %20, ptr noundef nonnull align 8 dereferenceable(32) %2, i64 32, i1 false), !tbaa.struct !69
  %21 = getelementptr inbounds nuw i8, ptr %0, i64 129
  store i8 1, ptr %21, align 1, !tbaa !19
  br label %22

22:                                               ; preds = %8, %10, %13, %16, %6, %19, %4
  %.1 = phi i32 [ 0, %19 ], [ 6, %6 ], [ 6, %16 ], [ 6, %13 ], [ 6, %10 ], [ 6, %8 ], [ 12, %4 ]
  ret i32 %.1
}